target datalayout = "e-m:e-p270:32:32-p271:32:32-p272:64:64-i64:64-i128:128-f80:128-n8:16:32:64-S128"
target triple = "x86_64-unknown-linux-gnu"

%"struct.OpenImageIO_v2_6_0::TypeDesc" = type { i8, i8, i8, i8, i32 }
%"class.OpenImageIO_v2_6_0::ImageOutput" = type { ptr, %"class.OpenImageIO_v2_6_0::ImageSpec", %"class.std::unique_ptr.12" }
%"class.OpenImageIO_v2_6_0::ImageSpec" = type { i32, i32, i32, i32, i32, i32, i32, i32, i32, i32, i32, i32, i32, i32, i32, i32, %"struct.OpenImageIO_v2_6_0::TypeDesc", %"class.std::vector", %"class.std::vector.2", i32, i32, i8, %"class.OpenImageIO_v2_6_0::ParamValueList" }
%"class.std::vector" = type { %"struct.std::_Vector_base" }
%"struct.std::_Vector_base" = type { %"struct.std::_Vector_base<OpenImageIO_v2_6_0::TypeDesc, std::allocator<OpenImageIO_v2_6_0::TypeDesc>>::_Vector_impl" }
%"struct.std::_Vector_base<OpenImageIO_v2_6_0::TypeDesc, std::allocator<OpenImageIO_v2_6_0::TypeDesc>>::_Vector_impl" = type { %"struct.std::_Vector_base<OpenImageIO_v2_6_0::TypeDesc, std::allocator<OpenImageIO_v2_6_0::TypeDesc>>::_Vector_impl_data" }
%"struct.std::_Vector_base<OpenImageIO_v2_6_0::TypeDesc, std::allocator<OpenImageIO_v2_6_0::TypeDesc>>::_Vector_impl_data" = type { ptr, ptr, ptr }
%"class.std::vector.2" = type { %"struct.std::_Vector_base.3" }
%"struct.std::_Vector_base.3" = type { %"struct.std::_Vector_base<std::__cxx11::basic_string<char>, std::allocator<std::__cxx11::basic_string<char>>>::_Vector_impl" }
%"struct.std::_Vector_base<std::__cxx11::basic_string<char>, std::allocator<std::__cxx11::basic_string<char>>>::_Vector_impl" = type { %"struct.std::_Vector_base<std::__cxx11::basic_string<char>, std::allocator<std::__cxx11::basic_string<char>>>::_Vector_impl_data" }
%"struct.std::_Vector_base<std::__cxx11::basic_string<char>, std::allocator<std::__cxx11::basic_string<char>>>::_Vector_impl_data" = type { ptr, ptr, ptr }
%"class.OpenImageIO_v2_6_0::ParamValueList" = type { %"class.std::vector.7" }
%"class.std::vector.7" = type { %"struct.std::_Vector_base.8" }
%"struct.std::_Vector_base.8" = type { %"struct.std::_Vector_base<OpenImageIO_v2_6_0::ParamValue, std::allocator<OpenImageIO_v2_6_0::ParamValue>>::_Vector_impl" }
%"struct.std::_Vector_base<OpenImageIO_v2_6_0::ParamValue, std::allocator<OpenImageIO_v2_6_0::ParamValue>>::_Vector_impl" = type { %"struct.std::_Vector_base<OpenImageIO_v2_6_0::ParamValue, std::allocator<OpenImageIO_v2_6_0::ParamValue>>::_Vector_impl_data" }
%"struct.std::_Vector_base<OpenImageIO_v2_6_0::ParamValue, std::allocator<OpenImageIO_v2_6_0::ParamValue>>::_Vector_impl_data" = type { ptr, ptr, ptr }
%"class.std::unique_ptr.12" = type { %"struct.std::__uniq_ptr_data.13" }
%"struct.std::__uniq_ptr_data.13" = type { %"class.std::__uniq_ptr_impl.14" }
%"class.std::__uniq_ptr_impl.14" = type { %"class.std::tuple.15" }
%"class.std::tuple.15" = type { %"struct.std::_Tuple_impl.16" }
%"struct.std::_Tuple_impl.16" = type { %"struct.std::_Tuple_impl.17", %"struct.std::_Head_base.19" }
%"struct.std::_Tuple_impl.17" = type { %"struct.std::_Head_base.18" }
%"struct.std::_Head_base.18" = type { ptr }
%"struct.std::_Head_base.19" = type { ptr }

@.str = private unnamed_addr constant [58 x i8] c"write_deep_image is not supported for volume (3D) images.\00", align 1

; Function Attrs: mustprogress uwtable
define noundef zeroext i1 @_ZN18OpenImageIO_v2_6_011ImageOutput16write_deep_imageERKNS_8DeepDataE(ptr noundef nonnull align 8 dereferenceable(184) %this, ptr noundef nonnull align 8 dereferenceable(20) %deepdata) unnamed_addr #6 align 2 {
entry:
  %retval = alloca i1, align 1
  %this.addr = alloca ptr, align 8
  %deepdata.addr = alloca ptr, align 8
  store ptr %this, ptr %this.addr, align 8
  store ptr %deepdata, ptr %deepdata.addr, align 8
  %this1 = load ptr, ptr %this.addr, align 8
  %m_spec = getelementptr inbounds %"class.OpenImageIO_v2_6_0::ImageOutput", ptr %this1, i32 0, i32 1
  %depth = getelementptr inbounds %"class.OpenImageIO_v2_6_0::ImageSpec", ptr %m_spec, i32 0, i32 5
  %0 = load i32, ptr %depth, align 4
  %cmp = icmp sgt i32 %0, 1
  br i1 %cmp, label %if.then, label %if.end

if.then:                                          ; preds = %entry
  call void @_ZNK18OpenImageIO_v2_6_011ImageOutput6errorfIJEEEvPKcDpRKT_(ptr noundef nonnull align 8 dereferenceable(184) %this1, ptr noundef @.str)
  store i1 false, ptr %retval, align 1
  br label %return

if.end:                                           ; preds = %entry
  %m_spec2 = getelementptr inbounds %"class.OpenImageIO_v2_6_0::ImageOutput", ptr %this1, i32 0, i32 1
  %tile_width = getelementptr inbounds %"class.OpenImageIO_v2_6_0::ImageSpec", ptr %m_spec2, i32 0, i32 12
  %1 = load i32, ptr %tile_width, align 8
  %tobool = icmp ne i32 %1, 0
  br i1 %tobool, label %if.then3, label %if.else

if.then3:                                         ; preds = %if.end
  %m_spec4 = getelementptr inbounds %"class.OpenImageIO_v2_6_0::ImageOutput", ptr %this1, i32 0, i32 1
  %x = getelementptr inbounds %"class.OpenImageIO_v2_6_0::ImageSpec", ptr %m_spec4, i32 0, i32 0
  %2 = load i32, ptr %x, align 8
  %m_spec5 = getelementptr inbounds %"class.OpenImageIO_v2_6_0::ImageOutput", ptr %this1, i32 0, i32 1
  %x6 = getelementptr inbounds %"class.OpenImageIO_v2_6_0::ImageSpec", ptr %m_spec5, i32 0, i32 0
  %3 = load i32, ptr %x6, align 8
  %m_spec7 = getelementptr inbounds %"class.OpenImageIO_v2_6_0::ImageOutput", ptr %this1, i32 0, i32 1
  %width = getelementptr inbounds %"class.OpenImageIO_v2_6_0::ImageSpec", ptr %m_spec7, i32 0, i32 3
  %4 = load i32, ptr %width, align 4
  %add = add nsw i32 %3, %4
  %m_spec8 = getelementptr inbounds %"class.OpenImageIO_v2_6_0::ImageOutput", ptr %this1, i32 0, i32 1
  %y = getelementptr inbounds %"class.OpenImageIO_v2_6_0::ImageSpec", ptr %m_spec8, i32 0, i32 1
  %5 = load i32, ptr %y, align 4
  %m_spec9 = getelementptr inbounds %"class.OpenImageIO_v2_6_0::ImageOutput", ptr %this1, i32 0, i32 1
  %y10 = getelementptr inbounds %"class.OpenImageIO_v2_6_0::ImageSpec", ptr %m_spec9, i32 0, i32 1
  %6 = load i32, ptr %y10, align 4
  %m_spec11 = getelementptr inbounds %"class.OpenImageIO_v2_6_0::ImageOutput", ptr %this1, i32 0, i32 1
  %height = getelementptr inbounds %"class.OpenImageIO_v2_6_0::ImageSpec", ptr %m_spec11, i32 0, i32 4
  %7 = load i32, ptr %height, align 8
  %add12 = add nsw i32 %6, %7
  %m_spec13 = getelementptr inbounds %"class.OpenImageIO_v2_6_0::ImageOutput", ptr %this1, i32 0, i32 1
  %z = getelementptr inbounds %"class.OpenImageIO_v2_6_0::ImageSpec", ptr %m_spec13, i32 0, i32 2
  %8 = load i32, ptr %z, align 8
  %m_spec14 = getelementptr inbounds %"class.OpenImageIO_v2_6_0::ImageOutput", ptr %this1, i32 0, i32 1
  %z15 = getelementptr inbounds %"class.OpenImageIO_v2_6_0::ImageSpec", ptr %m_spec14, i32 0, i32 2
  %9 = load i32, ptr %z15, align 8
  %m_spec16 = getelementptr inbounds %"class.OpenImageIO_v2_6_0::ImageOutput", ptr %this1, i32 0, i32 1
  %depth17 = getelementptr inbounds %"class.OpenImageIO_v2_6_0::ImageSpec", ptr %m_spec16, i32 0, i32 5
  %10 = load i32, ptr %depth17, align 4
  %add18 = add nsw i32 %9, %10
  %11 = load ptr, ptr %deepdata.addr, align 8
  %vtable = load ptr, ptr %this1, align 8
  %vfn = getelementptr inbounds ptr, ptr %vtable, i64 14
  %12 = load ptr, ptr %vfn, align 8
  %call = call noundef zeroext i1 %12(ptr noundef nonnull align 8 dereferenceable(184) %this1, i32 noundef %2, i32 noundef %add, i32 noundef %5, i32 noundef %add12, i32 noundef %8, i32 noundef %add18, ptr noundef nonnull align 8 dereferenceable(20) %11)
  store i1 %call, ptr %retval, align 1
  br label %return

if.else:                                          ; preds = %if.end
  %m_spec19 = getelementptr inbounds %"class.OpenImageIO_v2_6_0::ImageOutput", ptr %this1, i32 0, i32 1
  %y20 = getelementptr inbounds %"class.OpenImageIO_v2_6_0::ImageSpec", ptr %m_spec19, i32 0, i32 1
  %13 = load i32, ptr %y20, align 4
  %m_spec21 = getelementptr inbounds %"class.OpenImageIO_v2_6_0::ImageOutput", ptr %this1, i32 0, i32 1
  %y22 = getelementptr inbounds %"class.OpenImageIO_v2_6_0::ImageSpec", ptr %m_spec21, i32 0, i32 1
  %14 = load i32, ptr %y22, align 4
  %m_spec23 = getelementptr inbounds %"class.OpenImageIO_v2_6_0::ImageOutput", ptr %this1, i32 0, i32 1
  %height24 = getelementptr inbounds %"class.OpenImageIO_v2_6_0::ImageSpec", ptr %m_spec23, i32 0, i32 4
  %15 = load i32, ptr %height24, align 8
  %add25 = add nsw i32 %14, %15
  %16 = load ptr, ptr %deepdata.addr, align 8
  %vtable26 = load ptr, ptr %this1, align 8
  %vfn27 = getelementptr inbounds ptr, ptr %vtable26, i64 13
  %17 = load ptr, ptr %vfn27, align 8
  %call28 = call noundef zeroext i1 %17(ptr noundef nonnull align 8 dereferenceable(184) %this1, i32 noundef %13, i32 noundef %add25, i32 noundef 0, ptr noundef nonnull align 8 dereferenceable(20) %16)
  store i1 %call28, ptr %retval, align 1
  br label %return

return:                                           ; preds = %if.else, %if.then3, %if.then
  %18 = load i1, ptr %retval, align 1
  ret i1 %18
}