; Function Attrs: mustprogress uwtable
define noundef zeroext i1 @_ZN18OpenImageIO_v2_6_011ImageOutput16write_deep_imageERKNS_8DeepDataE(ptr noundef nonnull align 8 dereferenceable(184) %this, ptr noundef nonnull align 8 dereferenceable(20) %deepdata) unnamed_addr #5 align 2 {
entry:
  %m_spec = getelementptr inbounds i8, ptr %this, i64 8
  %depth = getelementptr inbounds i8, ptr %this, i64 28
  %0 = load i32, ptr %depth, align 4
  %cmp = icmp sgt i32 %0, 1
  br i1 %cmp, label %if.then, label %if.end

if.then:                                          ; preds = %entry
  tail call void @_ZNK18OpenImageIO_v2_6_011ImageOutput6errorfIJEEEvPKcDpRKT_(ptr noundef nonnull align 8 dereferenceable(184) %this, ptr noundef nonnull @.str)
  br label %return

if.end:                                           ; preds = %entry
  %tile_width = getelementptr inbounds i8, ptr %this, i64 56
  %1 = load i32, ptr %tile_width, align 8
  %tobool.not = icmp eq i32 %1, 0
  br i1 %tobool.not, label %if.else, label %if.then3

if.then3:                                         ; preds = %if.end
  %2 = load i32, ptr %m_spec, align 8
  %width = getelementptr inbounds i8, ptr %this, i64 20
  %3 = load i32, ptr %width, align 4
  %add = add nsw i32 %3, %2
  %y = getelementptr inbounds i8, ptr %this, i64 12
  %4 = load i32, ptr %y, align 4
  %height = getelementptr inbounds i8, ptr %this, i64 24
  %5 = load i32, ptr %height, align 8
  %add12 = add nsw i32 %5, %4
  %z = getelementptr inbounds i8, ptr %this, i64 16
  %6 = load i32, ptr %z, align 8
  %add18 = add nsw i32 %6, %0
  %vtable = load ptr, ptr %this, align 8
  %vfn = getelementptr inbounds i8, ptr %vtable, i64 112
  %7 = load ptr, ptr %vfn, align 8
  %call = tail call noundef zeroext i1 %7(ptr noundef nonnull align 8 dereferenceable(184) %this, i32 noundef %2, i32 noundef %add, i32 noundef %4, i32 noundef %add12, i32 noundef %6, i32 noundef %add18, ptr noundef nonnull align 8 dereferenceable(20) %deepdata)
  br label %return

if.else:                                          ; preds = %if.end
  %y20 = getelementptr inbounds i8, ptr %this, i64 12
  %8 = load i32, ptr %y20, align 4
  %height24 = getelementptr inbounds i8, ptr %this, i64 24
  %9 = load i32, ptr %height24, align 8
  %add25 = add nsw i32 %9, %8
  %vtable26 = load ptr, ptr %this, align 8
  %vfn27 = getelementptr inbounds i8, ptr %vtable26, i64 104
  %10 = load ptr, ptr %vfn27, align 8
  %call28 = tail call noundef zeroext i1 %10(ptr noundef nonnull align 8 dereferenceable(184) %this, i32 noundef %8, i32 noundef %add25, i32 noundef 0, ptr noundef nonnull align 8 dereferenceable(20) %deepdata)
  br label %return

return:                                           ; preds = %if.else, %if.then3, %if.then
  %retval.0 = phi i1 [ false, %if.then ], [ %call, %if.then3 ], [ %call28, %if.else ]
  ret i1 %retval.0
}